Certificate:
    Data:
        Version: 3 (0x2)
        Serial Number: 1 (0x1)
    Signature Algorithm: sha256WithRSAEncryption
        Issuer: C=CN, ST=Fujian, L=Fuzhou, O=benq, OU=benq, CN=benq
        Validity
            Not Before: Sep  2 06:53:25 2016 GMT
            Not After : Sep  2 06:53:25 2017 GMT
        Subject: C=CN, ST=Fujian, O=benq, OU=benq, CN=*.baidu.com
        Subject Public Key Info:
            Public Key Algorithm: rsaEncryption
                Public-Key: (2048 bit)
                Modulus:
                    00:9f:80:ac:99:5a:db:bf:35:3b:63:fd:ee:08:f4:
                    1c:78:68:9b:fa:46:25:df:ce:d2:6d:f9:c7:6e:e3:
                    25:74:8f:0b:69:78:19:38:0c:74:55:4f:19:b0:28:
                    2f:7c:b4:8f:85:06:de:3c:8a:2c:f4:1b:74:4d:62:
                    81:3d:de:6e:42:db:cd:b2:10:9e:19:2d:f1:99:88:
                    df:d3:83:fe:24:3e:3b:bd:d3:12:14:6c:2b:92:ab:
                    c9:d8:ed:3b:79:78:50:1e:52:ed:c4:a3:91:c8:cf:
                    40:3e:1f:5a:62:2e:c4:02:3b:ba:63:b8:57:db:84:
                    20:13:5c:f6:47:34:11:e2:37:ac:a8:42:29:c5:8c:
                    06:a0:87:44:d2:24:ea:b2:23:24:e3:80:33:c3:c3:
                    0a:e7:9f:8a:ba:41:3b:92:55:3e:5d:ce:53:88:fb:
                    e7:00:7d:7c:29:87:9a:42:c3:51:e4:9a:cd:79:a1:
                    2a:08:95:37:be:66:f3:17:9f:b9:03:db:c2:b3:df:
                    16:2f:44:f9:de:fc:d6:d7:00:87:01:90:26:a6:e9:
                    75:08:e8:fa:09:4d:50:c4:f1:ca:4a:e5:7e:2b:18:
                    22:95:d3:a0:4d:dd:bf:fe:3f:04:fd:fb:48:f8:04:
                    c8:ab:6c:41:15:77:05:53:2d:bf:ae:7f:a9:f3:da:
                    7f:0f
                Exponent: 65537 (0x10001)
        X509v3 extensions:
            X509v3 Basic Constraints: 
                CA:FALSE
            Netscape Comment: 
                OpenSSL Generated Certificate
            X509v3 Subject Key Identifier: 
                ED:80:50:6D:40:94:62:60:23:1E:B4:17:7D:11:2C:CD:FB:FB:DE:86
            X509v3 Authority Key Identifier: 
                keyid:F5:B9:0A:B9:A8:B9:12:F7:31:89:A8:83:4C:00:5F:65:19:0B:44:9D

    Signature Algorithm: sha256WithRSAEncryption
         37:bf:fa:2d:9e:5d:9f:7d:13:55:75:f4:31:df:d9:36:fa:d2:
         81:cc:6d:81:a9:b9:c4:5a:4a:c2:b9:dc:67:cb:1b:1d:68:5e:
         bc:d5:91:74:18:9d:a9:80:d3:6f:47:40:b2:25:94:42:e3:5c:
         df:58:be:20:20:9c:7d:49:05:dc:fd:63:0e:19:c7:7e:bc:ff:
         43:8f:a4:49:de:3f:58:b8:53:cc:4f:e6:dc:24:0c:74:aa:7e:
         a0:9c:71:83:cd:c3:fe:bb:83:fa:f1:67:85:5d:89:f4:6b:72:
         b2:db:8b:ea:cd:25:61:d8:65:b5:49:3f:70:6b:0f:a3:de:2e:
         87:29:eb:41:9e:4f:89:64:b4:94:50:2a:53:2c:81:14:9f:a8:
         c6:b8:a1:97:aa:cd:d6:fa:d4:c1:30:d5:dd:98:33:d3:a4:18:
         b2:bc:58:b7:23:82:3e:31:4b:22:13:62:68:74:0b:2b:ed:34:
         4a:b9:48:a1:53:96:d5:e1:90:09:32:81:e7:a7:ff:5e:61:c3:
         ec:2d:49:fc:35:6d:96:87:9a:94:1b:ce:83:b0:54:85:38:1a:
         b8:b1:1e:9e:cf:cc:62:94:ef:1a:ef:dc:e2:2f:2a:e0:ff:1d:
         1f:40:44:93:76:b9:3f:4e:02:47:a0:36:aa:cb:8f:20:a5:02:
         f8:78:d6:15
-----BEGIN CERTIFICATE-----
MIIDpDCCAoygAwIBAgIBATANBgkqhkiG9w0BAQsFADBcMQswCQYDVQQGEwJDTjEP
MA0GA1UECAwGRnVqaWFuMQ8wDQYDVQQHDAZGdXpob3UxDTALBgNVBAoMBGJlbnEx
DTALBgNVBAsMBGJlbnExDTALBgNVBAMMBGJlbnEwHhcNMTYwOTAyMDY1MzI1WhcN
MTcwOTAyMDY1MzI1WjBSMQswCQYDVQQGEwJDTjEPMA0GA1UECAwGRnVqaWFuMQ0w
CwYDVQQKDARiZW5xMQ0wCwYDVQQLDARiZW5xMRQwEgYDVQQDDAsqLmJhaWR1LmNv
bTCCASIwDQYJKoZIhvcNAQEBBQADggEPADCCAQoCggEBAJ+ArJla2781O2P97gj0
HHhom/pGJd/O0m35x27jJXSPC2l4GTgMdFVPGbAoL3y0j4UG3jyKLPQbdE1igT3e
bkLbzbIQnhkt8ZmI39OD/iQ+O73TEhRsK5KrydjtO3l4UB5S7cSjkcjPQD4fWmIu
xAI7umO4V9uEIBNc9kc0EeI3rKhCKcWMBqCHRNIk6rIjJOOAM8PDCuefirpBO5JV
Pl3OU4j75wB9fCmHmkLDUeSazXmhKgiVN75m8xefuQPbwrPfFi9E+d781tcAhwGQ
JqbpdQjo+glNUMTxykrlfisYIpXToE3dv/4/BP37SPgEyKtsQRV3BVMtv65/qfPa
fw8CAwEAAaN7MHkwCQYDVR0TBAIwADAsBglghkgBhvhCAQ0EHxYdT3BlblNTTCBH
ZW5lcmF0ZWQgQ2VydGlmaWNhdGUwHQYDVR0OBBYEFO2AUG1AlGJgIx60F30RLM37
+96GMB8GA1UdIwQYMBaAFPW5CrmouRL3MYmog0wAX2UZC0SdMA0GCSqGSIb3DQEB
CwUAA4IBAQA3v/otnl2ffRNVdfQx39k2+tKBzG2BqbnEWkrCudxnyxsdaF681ZF0
GJ2pgNNvR0CyJZRC41zfWL4gIJx9SQXc/WMOGcd+vP9Dj6RJ3j9YuFPMT+bcJAx0
qn6gnHGDzcP+u4P68WeFXYn0a3Ky24vqzSVh2GW1ST9waw+j3i6HKetBnk+JZLSU
UCpTLIEUn6jGuKGXqs3W+tTBMNXdmDPTpBiyvFi3I4I+MUsiE2JodAsr7TRKuUih
U5bV4ZAJMoHnp/9eYcPsLUn8NW2Wh5qUG86DsFSFOBq4sR6ez8xilO8a79ziLyrg
/x0fQESTdrk/TgJHoDaqy48gpQL4eNYV
-----END CERTIFICATE-----
